; Function Attrs: inlinehint nofree norecurse nosync nounwind memory(read, inaccessiblemem: none) uwtable
define internal fastcc range(i32 0, 2) i32 @mbedtls_ssl_sig_alg_is_offered(ptr noundef readonly captures(none) %0, i16 noundef zeroext %1) unnamed_addr #10 {
  %3 = getelementptr inbounds nuw i8, ptr %0, i64 112
  %4 = load ptr, ptr %3, align 8, !tbaa !44
  %.not.i = icmp eq ptr %4, null
  br i1 %.not.i, label %mbedtls_ssl_get_sig_algs.exit, label %5

5:                                                ; preds = %2
  %6 = getelementptr inbounds nuw i8, ptr %4, i64 15
  %7 = load i8, ptr %6, align 1, !tbaa !125
  %8 = icmp eq i8 %7, 1
  br i1 %8, label %9, label %mbedtls_ssl_get_sig_algs.exit

9:                                                ; preds = %5
  %10 = getelementptr inbounds nuw i8, ptr %4, i64 112
  %11 = load ptr, ptr %10, align 8, !tbaa !126
  %.not8.i = icmp eq ptr %11, null
  br i1 %.not8.i, label %mbedtls_ssl_get_sig_algs.exit, label %.preheader

mbedtls_ssl_get_sig_algs.exit:                    ; preds = %2, %5, %9
  %12 = load ptr, ptr %0, align 8, !tbaa !19
  %13 = getelementptr inbounds nuw i8, ptr %12, i64 240
  %14 = load ptr, ptr %13, align 8, !tbaa !127
  %15 = icmp eq ptr %14, null
  br i1 %15, label %.loopexit, label %.preheader

.preheader:                                       ; preds = %9, %mbedtls_ssl_get_sig_algs.exit
  %.0.i14 = phi ptr [ %14, %mbedtls_ssl_get_sig_algs.exit ], [ %11, %9 ]
  %16 = load i16, ptr %.0.i14, align 2, !tbaa !128
  %.not9 = icmp eq i16 %16, 0
  br i1 %.not9, label %.loopexit, label %.lr.ph

17:                                               ; preds = %.lr.ph
  %18 = getelementptr inbounds nuw i8, ptr %.010, i64 2
  %19 = load i16, ptr %18, align 2, !tbaa !128
  %.not = icmp eq i16 %19, 0
  br i1 %.not, label %.loopexit, label %.lr.ph, !llvm.loop !129

.lr.ph:                                           ; preds = %.preheader, %17
  %20 = phi i16 [ %19, %17 ], [ %16, %.preheader ]
  %.010 = phi ptr [ %18, %17 ], [ %.0.i14, %.preheader ]
  %21 = icmp eq i16 %20, %1
  br i1 %21, label %.loopexit, label %17

.loopexit:                                        ; preds = %.lr.ph, %17, %.preheader, %mbedtls_ssl_get_sig_algs.exit
  %.06 = phi i32 [ 0, %mbedtls_ssl_get_sig_algs.exit ], [ 0, %.preheader ], [ 1, %.lr.ph ], [ 0, %17 ]
  ret i32 %.06
}